target datalayout = "e-m:e-p270:32:32-p271:32:32-p272:64:64-i64:64-i128:128-f80:128-n8:16:32:64-S128"
target triple = "x86_64-pc-linux-gnu"

%struct.jpeg_compress_struct = type { ptr, ptr, ptr, ptr, i32, i32, ptr, i32, i32, i32, i32, double, i32, i32, i32, ptr, [4 x ptr], [4 x ptr], [4 x ptr], [16 x i8], [16 x i8], [16 x i8], i32, ptr, i32, i32, i32, i32, i32, i32, i32, i32, i32, i8, i8, i8, i16, i16, i32, i32, i32, i32, i32, i32, i32, [4 x ptr], i32, i32, i32, [10 x i32], i32, i32, i32, i32, ptr, ptr, ptr, ptr, ptr, ptr, ptr, ptr, ptr, ptr, i32 }
%struct.ppm_source_struct = type { %struct.cjpeg_source_struct, ptr, ptr, i64, ptr, i32 }
%struct.cjpeg_source_struct = type { ptr, ptr, ptr, ptr, ptr, ptr, ptr, i32, i32 }

@rgb_pixelsize = internal constant [17 x i32] [i32 -1, i32 -1, i32 3, i32 -1, i32 -1, i32 -1, i32 3, i32 4, i32 3, i32 4, i32 4, i32 4, i32 4, i32 4, i32 4, i32 4, i32 -1], align 16
@rgb_red = internal constant [17 x i32] [i32 -1, i32 -1, i32 0, i32 -1, i32 -1, i32 -1, i32 0, i32 0, i32 2, i32 2, i32 3, i32 1, i32 0, i32 2, i32 3, i32 1, i32 -1], align 16
@rgb_green = internal constant [17 x i32] [i32 -1, i32 -1, i32 1, i32 -1, i32 -1, i32 -1, i32 1, i32 1, i32 1, i32 1, i32 2, i32 2, i32 1, i32 1, i32 2, i32 2, i32 -1], align 16
@rgb_blue = internal constant [17 x i32] [i32 -1, i32 -1, i32 2, i32 -1, i32 -1, i32 -1, i32 2, i32 2, i32 0, i32 0, i32 1, i32 3, i32 2, i32 0, i32 1, i32 3, i32 -1], align 16
@alpha_index = internal global [17 x i32] [i32 -1, i32 -1, i32 -1, i32 -1, i32 -1, i32 -1, i32 -1, i32 -1, i32 -1, i32 -1, i32 -1, i32 -1, i32 3, i32 3, i32 0, i32 0, i32 -1], align 16

; Function Attrs: nounwind uwtable
define internal i32 @get_text_rgb_row(ptr noundef %0, ptr noundef %1) #0 {
  %3 = alloca ptr, align 8
  %4 = alloca ptr, align 8
  %5 = alloca ptr, align 8
  %6 = alloca ptr, align 8
  %7 = alloca ptr, align 8
  %8 = alloca ptr, align 8
  %9 = alloca i32, align 4
  %10 = alloca i32, align 4
  %11 = alloca i32, align 4
  %12 = alloca i32, align 4
  %13 = alloca i32, align 4
  %14 = alloca i32, align 4
  %15 = alloca i32, align 4
  store ptr %0, ptr %3, align 8, !tbaa !4
  store ptr %1, ptr %4, align 8, !tbaa !46
  call void @llvm.lifetime.start.p0(i64 8, ptr %5) #6
  %16 = load ptr, ptr %4, align 8, !tbaa !46
  store ptr %16, ptr %5, align 8, !tbaa !37
  call void @llvm.lifetime.start.p0(i64 8, ptr %6) #6
  %17 = load ptr, ptr %5, align 8, !tbaa !37
  %18 = getelementptr inbounds nuw %struct.ppm_source_struct, ptr %17, i32 0, i32 0
  %19 = getelementptr inbounds nuw %struct.cjpeg_source_struct, ptr %18, i32 0, i32 3
  %20 = load ptr, ptr %19, align 8, !tbaa !48
  store ptr %20, ptr %6, align 8, !tbaa !70
  call void @llvm.lifetime.start.p0(i64 8, ptr %7) #6
  call void @llvm.lifetime.start.p0(i64 8, ptr %8) #6
  %21 = load ptr, ptr %5, align 8, !tbaa !37
  %22 = getelementptr inbounds nuw %struct.ppm_source_struct, ptr %21, i32 0, i32 4
  %23 = load ptr, ptr %22, align 8, !tbaa !66
  store ptr %23, ptr %8, align 8, !tbaa !73
  call void @llvm.lifetime.start.p0(i64 4, ptr %9) #6
  call void @llvm.lifetime.start.p0(i64 4, ptr %10) #6
  %24 = load ptr, ptr %5, align 8, !tbaa !37
  %25 = getelementptr inbounds nuw %struct.ppm_source_struct, ptr %24, i32 0, i32 5
  %26 = load i32, ptr %25, align 8, !tbaa !53
  store i32 %26, ptr %10, align 4, !tbaa !49
  call void @llvm.lifetime.start.p0(i64 4, ptr %11) #6
  %27 = load ptr, ptr %3, align 8, !tbaa !4
  %28 = getelementptr inbounds nuw %struct.jpeg_compress_struct, ptr %27, i32 0, i32 10
  %29 = load i32, ptr %28, align 4, !tbaa !54
  %30 = zext i32 %29 to i64
  %31 = getelementptr inbounds nuw [17 x i32], ptr @rgb_red, i64 0, i64 %30
  %32 = load i32, ptr %31, align 4, !tbaa !49
  store i32 %32, ptr %11, align 4, !tbaa !49
  call void @llvm.lifetime.start.p0(i64 4, ptr %12) #6
  %33 = load ptr, ptr %3, align 8, !tbaa !4
  %34 = getelementptr inbounds nuw %struct.jpeg_compress_struct, ptr %33, i32 0, i32 10
  %35 = load i32, ptr %34, align 4, !tbaa !54
  %36 = zext i32 %35 to i64
  %37 = getelementptr inbounds nuw [17 x i32], ptr @rgb_green, i64 0, i64 %36
  %38 = load i32, ptr %37, align 4, !tbaa !49
  store i32 %38, ptr %12, align 4, !tbaa !49
  call void @llvm.lifetime.start.p0(i64 4, ptr %13) #6
  %39 = load ptr, ptr %3, align 8, !tbaa !4
  %40 = getelementptr inbounds nuw %struct.jpeg_compress_struct, ptr %39, i32 0, i32 10
  %41 = load i32, ptr %40, align 4, !tbaa !54
  %42 = zext i32 %41 to i64
  %43 = getelementptr inbounds nuw [17 x i32], ptr @rgb_blue, i64 0, i64 %42
  %44 = load i32, ptr %43, align 4, !tbaa !49
  store i32 %44, ptr %13, align 4, !tbaa !49
  call void @llvm.lifetime.start.p0(i64 4, ptr %14) #6
  %45 = load ptr, ptr %3, align 8, !tbaa !4
  %46 = getelementptr inbounds nuw %struct.jpeg_compress_struct, ptr %45, i32 0, i32 10
  %47 = load i32, ptr %46, align 4, !tbaa !54
  %48 = zext i32 %47 to i64
  %49 = getelementptr inbounds nuw [17 x i32], ptr @alpha_index, i64 0, i64 %48
  %50 = load i32, ptr %49, align 4, !tbaa !49
  store i32 %50, ptr %14, align 4, !tbaa !49
  call void @llvm.lifetime.start.p0(i64 4, ptr %15) #6
  %51 = load ptr, ptr %3, align 8, !tbaa !4
  %52 = getelementptr inbounds nuw %struct.jpeg_compress_struct, ptr %51, i32 0, i32 10
  %53 = load i32, ptr %52, align 4, !tbaa !54
  %54 = zext i32 %53 to i64
  %55 = getelementptr inbounds nuw [17 x i32], ptr @rgb_pixelsize, i64 0, i64 %54
  %56 = load i32, ptr %55, align 4, !tbaa !49
  store i32 %56, ptr %15, align 4, !tbaa !49
  %57 = load ptr, ptr %5, align 8, !tbaa !37
  %58 = getelementptr inbounds nuw %struct.ppm_source_struct, ptr %57, i32 0, i32 0
  %59 = getelementptr inbounds nuw %struct.cjpeg_source_struct, ptr %58, i32 0, i32 4
  %60 = load ptr, ptr %59, align 8, !tbaa !63
  %61 = getelementptr inbounds ptr, ptr %60, i64 0
  %62 = load ptr, ptr %61, align 8, !tbaa !73
  store ptr %62, ptr %7, align 8, !tbaa !73
  %63 = load i32, ptr %10, align 4, !tbaa !49
  %64 = load ptr, ptr %3, align 8, !tbaa !4
  %65 = getelementptr inbounds nuw %struct.jpeg_compress_struct, ptr %64, i32 0, i32 12
  %66 = load i32, ptr %65, align 8, !tbaa !9
  %67 = shl i32 1, %66
  %68 = sub i32 %67, 1
  %69 = icmp eq i32 %63, %68
  br i1 %69, label %70, label %166

70:                                               ; preds = %2
  %71 = load i32, ptr %14, align 4, !tbaa !49
  %72 = icmp sge i32 %71, 0
  br i1 %72, label %73, label %122

73:                                               ; preds = %70
  %74 = load ptr, ptr %3, align 8, !tbaa !4
  %75 = getelementptr inbounds nuw %struct.jpeg_compress_struct, ptr %74, i32 0, i32 7
  %76 = load i32, ptr %75, align 8, !tbaa !51
  store i32 %76, ptr %9, align 4, !tbaa !49
  br label %77

77:                                               ; preds = %118, %73
  %78 = load i32, ptr %9, align 4, !tbaa !49
  %79 = icmp ugt i32 %78, 0
  br i1 %79, label %80, label %121

80:                                               ; preds = %77
  %81 = load ptr, ptr %3, align 8, !tbaa !4
  %82 = load ptr, ptr %6, align 8, !tbaa !70
  %83 = load i32, ptr %10, align 4, !tbaa !49
  %84 = call i32 @read_pbm_integer(ptr noundef %81, ptr noundef %82, i32 noundef %83)
  %85 = trunc i32 %84 to i8
  %86 = load ptr, ptr %7, align 8, !tbaa !73
  %87 = load i32, ptr %11, align 4, !tbaa !49
  %88 = sext i32 %87 to i64
  %89 = getelementptr inbounds i8, ptr %86, i64 %88
  store i8 %85, ptr %89, align 1, !tbaa !32
  %90 = load ptr, ptr %3, align 8, !tbaa !4
  %91 = load ptr, ptr %6, align 8, !tbaa !70
  %92 = load i32, ptr %10, align 4, !tbaa !49
  %93 = call i32 @read_pbm_integer(ptr noundef %90, ptr noundef %91, i32 noundef %92)
  %94 = trunc i32 %93 to i8
  %95 = load ptr, ptr %7, align 8, !tbaa !73
  %96 = load i32, ptr %12, align 4, !tbaa !49
  %97 = sext i32 %96 to i64
  %98 = getelementptr inbounds i8, ptr %95, i64 %97
  store i8 %94, ptr %98, align 1, !tbaa !32
  %99 = load ptr, ptr %3, align 8, !tbaa !4
  %100 = load ptr, ptr %6, align 8, !tbaa !70
  %101 = load i32, ptr %10, align 4, !tbaa !49
  %102 = call i32 @read_pbm_integer(ptr noundef %99, ptr noundef %100, i32 noundef %101)
  %103 = trunc i32 %102 to i8
  %104 = load ptr, ptr %7, align 8, !tbaa !73
  %105 = load i32, ptr %13, align 4, !tbaa !49
  %106 = sext i32 %105 to i64
  %107 = getelementptr inbounds i8, ptr %104, i64 %106
  store i8 %103, ptr %107, align 1, !tbaa !32
  %108 = load i32, ptr %10, align 4, !tbaa !49
  %109 = trunc i32 %108 to i8
  %110 = load ptr, ptr %7, align 8, !tbaa !73
  %111 = load i32, ptr %14, align 4, !tbaa !49
  %112 = sext i32 %111 to i64
  %113 = getelementptr inbounds i8, ptr %110, i64 %112
  store i8 %109, ptr %113, align 1, !tbaa !32
  %114 = load i32, ptr %15, align 4, !tbaa !49
  %115 = load ptr, ptr %7, align 8, !tbaa !73
  %116 = sext i32 %114 to i64
  %117 = getelementptr inbounds i8, ptr %115, i64 %116
  store ptr %117, ptr %7, align 8, !tbaa !73
  br label %118

118:                                              ; preds = %80
  %119 = load i32, ptr %9, align 4, !tbaa !49
  %120 = add i32 %119, -1
  store i32 %120, ptr %9, align 4, !tbaa !49
  br label %77, !llvm.loop !81

121:                                              ; preds = %77
  br label %165

122:                                              ; preds = %70
  %123 = load ptr, ptr %3, align 8, !tbaa !4
  %124 = getelementptr inbounds nuw %struct.jpeg_compress_struct, ptr %123, i32 0, i32 7
  %125 = load i32, ptr %124, align 8, !tbaa !51
  store i32 %125, ptr %9, align 4, !tbaa !49
  br label %126

126:                                              ; preds = %161, %122
  %127 = load i32, ptr %9, align 4, !tbaa !49
  %128 = icmp ugt i32 %127, 0
  br i1 %128, label %129, label %164

129:                                              ; preds = %126
  %130 = load ptr, ptr %3, align 8, !tbaa !4
  %131 = load ptr, ptr %6, align 8, !tbaa !70
  %132 = load i32, ptr %10, align 4, !tbaa !49
  %133 = call i32 @read_pbm_integer(ptr noundef %130, ptr noundef %131, i32 noundef %132)
  %134 = trunc i32 %133 to i8
  %135 = load ptr, ptr %7, align 8, !tbaa !73
  %136 = load i32, ptr %11, align 4, !tbaa !49
  %137 = sext i32 %136 to i64
  %138 = getelementptr inbounds i8, ptr %135, i64 %137
  store i8 %134, ptr %138, align 1, !tbaa !32
  %139 = load ptr, ptr %3, align 8, !tbaa !4
  %140 = load ptr, ptr %6, align 8, !tbaa !70
  %141 = load i32, ptr %10, align 4, !tbaa !49
  %142 = call i32 @read_pbm_integer(ptr noundef %139, ptr noundef %140, i32 noundef %141)
  %143 = trunc i32 %142 to i8
  %144 = load ptr, ptr %7, align 8, !tbaa !73
  %145 = load i32, ptr %12, align 4, !tbaa !49
  %146 = sext i32 %145 to i64
  %147 = getelementptr inbounds i8, ptr %144, i64 %146
  store i8 %143, ptr %147, align 1, !tbaa !32
  %148 = load ptr, ptr %3, align 8, !tbaa !4
  %149 = load ptr, ptr %6, align 8, !tbaa !70
  %150 = load i32, ptr %10, align 4, !tbaa !49
  %151 = call i32 @read_pbm_integer(ptr noundef %148, ptr noundef %149, i32 noundef %150)
  %152 = trunc i32 %151 to i8
  %153 = load ptr, ptr %7, align 8, !tbaa !73
  %154 = load i32, ptr %13, align 4, !tbaa !49
  %155 = sext i32 %154 to i64
  %156 = getelementptr inbounds i8, ptr %153, i64 %155
  store i8 %152, ptr %156, align 1, !tbaa !32
  %157 = load i32, ptr %15, align 4, !tbaa !49
  %158 = load ptr, ptr %7, align 8, !tbaa !73
  %159 = sext i32 %157 to i64
  %160 = getelementptr inbounds i8, ptr %158, i64 %159
  store ptr %160, ptr %7, align 8, !tbaa !73
  br label %161

161:                                              ; preds = %129
  %162 = load i32, ptr %9, align 4, !tbaa !49
  %163 = add i32 %162, -1
  store i32 %163, ptr %9, align 4, !tbaa !49
  br label %126, !llvm.loop !82

164:                                              ; preds = %126
  br label %165

165:                                              ; preds = %164, %121
  br label %284

166:                                              ; preds = %2
  %167 = load i32, ptr %14, align 4, !tbaa !49
  %168 = icmp sge i32 %167, 0
  br i1 %168, label %169, label %231

169:                                              ; preds = %166
  %170 = load ptr, ptr %3, align 8, !tbaa !4
  %171 = getelementptr inbounds nuw %struct.jpeg_compress_struct, ptr %170, i32 0, i32 7
  %172 = load i32, ptr %171, align 8, !tbaa !51
  store i32 %172, ptr %9, align 4, !tbaa !49
  br label %173

173:                                              ; preds = %227, %169
  %174 = load i32, ptr %9, align 4, !tbaa !49
  %175 = icmp ugt i32 %174, 0
  br i1 %175, label %176, label %230

176:                                              ; preds = %173
  %177 = load ptr, ptr %8, align 8, !tbaa !73
  %178 = load ptr, ptr %3, align 8, !tbaa !4
  %179 = load ptr, ptr %6, align 8, !tbaa !70
  %180 = load i32, ptr %10, align 4, !tbaa !49
  %181 = call i32 @read_pbm_integer(ptr noundef %178, ptr noundef %179, i32 noundef %180)
  %182 = zext i32 %181 to i64
  %183 = getelementptr inbounds nuw i8, ptr %177, i64 %182
  %184 = load i8, ptr %183, align 1, !tbaa !32
  %185 = load ptr, ptr %7, align 8, !tbaa !73
  %186 = load i32, ptr %11, align 4, !tbaa !49
  %187 = sext i32 %186 to i64
  %188 = getelementptr inbounds i8, ptr %185, i64 %187
  store i8 %184, ptr %188, align 1, !tbaa !32
  %189 = load ptr, ptr %8, align 8, !tbaa !73
  %190 = load ptr, ptr %3, align 8, !tbaa !4
  %191 = load ptr, ptr %6, align 8, !tbaa !70
  %192 = load i32, ptr %10, align 4, !tbaa !49
  %193 = call i32 @read_pbm_integer(ptr noundef %190, ptr noundef %191, i32 noundef %192)
  %194 = zext i32 %193 to i64
  %195 = getelementptr inbounds nuw i8, ptr %189, i64 %194
  %196 = load i8, ptr %195, align 1, !tbaa !32
  %197 = load ptr, ptr %7, align 8, !tbaa !73
  %198 = load i32, ptr %12, align 4, !tbaa !49
  %199 = sext i32 %198 to i64
  %200 = getelementptr inbounds i8, ptr %197, i64 %199
  store i8 %196, ptr %200, align 1, !tbaa !32
  %201 = load ptr, ptr %8, align 8, !tbaa !73
  %202 = load ptr, ptr %3, align 8, !tbaa !4
  %203 = load ptr, ptr %6, align 8, !tbaa !70
  %204 = load i32, ptr %10, align 4, !tbaa !49
  %205 = call i32 @read_pbm_integer(ptr noundef %202, ptr noundef %203, i32 noundef %204)
  %206 = zext i32 %205 to i64
  %207 = getelementptr inbounds nuw i8, ptr %201, i64 %206
  %208 = load i8, ptr %207, align 1, !tbaa !32
  %209 = load ptr, ptr %7, align 8, !tbaa !73
  %210 = load i32, ptr %13, align 4, !tbaa !49
  %211 = sext i32 %210 to i64
  %212 = getelementptr inbounds i8, ptr %209, i64 %211
  store i8 %208, ptr %212, align 1, !tbaa !32
  %213 = load ptr, ptr %3, align 8, !tbaa !4
  %214 = getelementptr inbounds nuw %struct.jpeg_compress_struct, ptr %213, i32 0, i32 12
  %215 = load i32, ptr %214, align 8, !tbaa !9
  %216 = shl i32 1, %215
  %217 = sub nsw i32 %216, 1
  %218 = trunc i32 %217 to i8
  %219 = load ptr, ptr %7, align 8, !tbaa !73
  %220 = load i32, ptr %14, align 4, !tbaa !49
  %221 = sext i32 %220 to i64
  %222 = getelementptr inbounds i8, ptr %219, i64 %221
  store i8 %218, ptr %222, align 1, !tbaa !32
  %223 = load i32, ptr %15, align 4, !tbaa !49
  %224 = load ptr, ptr %7, align 8, !tbaa !73
  %225 = sext i32 %223 to i64
  %226 = getelementptr inbounds i8, ptr %224, i64 %225
  store ptr %226, ptr %7, align 8, !tbaa !73
  br label %227

227:                                              ; preds = %176
  %228 = load i32, ptr %9, align 4, !tbaa !49
  %229 = add i32 %228, -1
  store i32 %229, ptr %9, align 4, !tbaa !49
  br label %173, !llvm.loop !83

230:                                              ; preds = %173
  br label %283

231:                                              ; preds = %166
  %232 = load ptr, ptr %3, align 8, !tbaa !4
  %233 = getelementptr inbounds nuw %struct.jpeg_compress_struct, ptr %232, i32 0, i32 7
  %234 = load i32, ptr %233, align 8, !tbaa !51
  store i32 %234, ptr %9, align 4, !tbaa !49
  br label %235

235:                                              ; preds = %279, %231
  %236 = load i32, ptr %9, align 4, !tbaa !49
  %237 = icmp ugt i32 %236, 0
  br i1 %237, label %238, label %282

238:                                              ; preds = %235
  %239 = load ptr, ptr %8, align 8, !tbaa !73
  %240 = load ptr, ptr %3, align 8, !tbaa !4
  %241 = load ptr, ptr %6, align 8, !tbaa !70
  %242 = load i32, ptr %10, align 4, !tbaa !49
  %243 = call i32 @read_pbm_integer(ptr noundef %240, ptr noundef %241, i32 noundef %242)
  %244 = zext i32 %243 to i64
  %245 = getelementptr inbounds nuw i8, ptr %239, i64 %244
  %246 = load i8, ptr %245, align 1, !tbaa !32
  %247 = load ptr, ptr %7, align 8, !tbaa !73
  %248 = load i32, ptr %11, align 4, !tbaa !49
  %249 = sext i32 %248 to i64
  %250 = getelementptr inbounds i8, ptr %247, i64 %249
  store i8 %246, ptr %250, align 1, !tbaa !32
  %251 = load ptr, ptr %8, align 8, !tbaa !73
  %252 = load ptr, ptr %3, align 8, !tbaa !4
  %253 = load ptr, ptr %6, align 8, !tbaa !70
  %254 = load i32, ptr %10, align 4, !tbaa !49
  %255 = call i32 @read_pbm_integer(ptr noundef %252, ptr noundef %253, i32 noundef %254)
  %256 = zext i32 %255 to i64
  %257 = getelementptr inbounds nuw i8, ptr %251, i64 %256
  %258 = load i8, ptr %257, align 1, !tbaa !32
  %259 = load ptr, ptr %7, align 8, !tbaa !73
  %260 = load i32, ptr %12, align 4, !tbaa !49
  %261 = sext i32 %260 to i64
  %262 = getelementptr inbounds i8, ptr %259, i64 %261
  store i8 %258, ptr %262, align 1, !tbaa !32
  %263 = load ptr, ptr %8, align 8, !tbaa !73
  %264 = load ptr, ptr %3, align 8, !tbaa !4
  %265 = load ptr, ptr %6, align 8, !tbaa !70
  %266 = load i32, ptr %10, align 4, !tbaa !49
  %267 = call i32 @read_pbm_integer(ptr noundef %264, ptr noundef %265, i32 noundef %266)
  %268 = zext i32 %267 to i64
  %269 = getelementptr inbounds nuw i8, ptr %263, i64 %268
  %270 = load i8, ptr %269, align 1, !tbaa !32
  %271 = load ptr, ptr %7, align 8, !tbaa !73
  %272 = load i32, ptr %13, align 4, !tbaa !49
  %273 = sext i32 %272 to i64
  %274 = getelementptr inbounds i8, ptr %271, i64 %273
  store i8 %270, ptr %274, align 1, !tbaa !32
  %275 = load i32, ptr %15, align 4, !tbaa !49
  %276 = load ptr, ptr %7, align 8, !tbaa !73
  %277 = sext i32 %275 to i64
  %278 = getelementptr inbounds i8, ptr %276, i64 %277
  store ptr %278, ptr %7, align 8, !tbaa !73
  br label %279

279:                                              ; preds = %238
  %280 = load i32, ptr %9, align 4, !tbaa !49
  %281 = add i32 %280, -1
  store i32 %281, ptr %9, align 4, !tbaa !49
  br label %235, !llvm.loop !84

282:                                              ; preds = %235
  br label %283

283:                                              ; preds = %282, %230
  br label %284

284:                                              ; preds = %283, %165
  call void @llvm.lifetime.end.p0(i64 4, ptr %15) #6
  call void @llvm.lifetime.end.p0(i64 4, ptr %14) #6
  call void @llvm.lifetime.end.p0(i64 4, ptr %13) #6
  call void @llvm.lifetime.end.p0(i64 4, ptr %12) #6
  call void @llvm.lifetime.end.p0(i64 4, ptr %11) #6
  call void @llvm.lifetime.end.p0(i64 4, ptr %10) #6
  call void @llvm.lifetime.end.p0(i64 4, ptr %9) #6
  call void @llvm.lifetime.end.p0(i64 8, ptr %8) #6
  call void @llvm.lifetime.end.p0(i64 8, ptr %7) #6
  call void @llvm.lifetime.end.p0(i64 8, ptr %6) #6
  call void @llvm.lifetime.end.p0(i64 8, ptr %5) #6
  ret i32 1
}