; Function Attrs: nounwind uwtable
define internal noundef i32 @get_text_rgb_row(ptr noundef %0, ptr noundef readonly captures(none) %1) #0 {
  %3 = getelementptr inbounds nuw i8, ptr %1, i64 24
  %4 = load ptr, ptr %3, align 8, !tbaa !43
  %5 = getelementptr inbounds nuw i8, ptr %1, i64 88
  %6 = load ptr, ptr %5, align 8, !tbaa !59
  %7 = getelementptr inbounds nuw i8, ptr %1, i64 96
  %8 = load i32, ptr %7, align 8, !tbaa !47
  %9 = getelementptr inbounds nuw i8, ptr %0, i64 60
  %10 = load i32, ptr %9, align 4, !tbaa !48
  %11 = zext i32 %10 to i64
  %12 = getelementptr inbounds nuw [17 x i32], ptr @rgb_red, i64 0, i64 %11
  %13 = load i32, ptr %12, align 4, !tbaa !49
  %14 = getelementptr inbounds nuw [17 x i32], ptr @rgb_green, i64 0, i64 %11
  %15 = load i32, ptr %14, align 4, !tbaa !49
  %16 = getelementptr inbounds nuw [17 x i32], ptr @rgb_blue, i64 0, i64 %11
  %17 = load i32, ptr %16, align 4, !tbaa !49
  %18 = getelementptr inbounds nuw [17 x i32], ptr @alpha_index, i64 0, i64 %11
  %19 = load i32, ptr %18, align 4, !tbaa !49
  %20 = getelementptr inbounds nuw [17 x i32], ptr @rgb_pixelsize, i64 0, i64 %11
  %21 = load i32, ptr %20, align 4, !tbaa !49
  %22 = getelementptr inbounds nuw i8, ptr %1, i64 32
  %23 = load ptr, ptr %22, align 8, !tbaa !57
  %24 = load ptr, ptr %23, align 8, !tbaa !63
  %25 = getelementptr inbounds nuw i8, ptr %0, i64 72
  %26 = load i32, ptr %25, align 8, !tbaa !4
  %notmask = shl nsw i32 -1, %26
  %27 = xor i32 %notmask, %8
  %28 = icmp eq i32 %27, -1
  %29 = and i64 %11, 4294967292
  %30 = icmp eq i64 %29, 12
  %31 = getelementptr inbounds nuw i8, ptr %0, i64 48
  %32 = load i32, ptr %31, align 8, !tbaa !45
  %.not116131 = icmp eq i32 %32, 0
  br i1 %28, label %33, label %71

33:                                               ; preds = %2
  br i1 %30, label %34, label %54

34:                                               ; preds = %33
  br i1 %.not116131, label %.loopexit, label %.lr.ph134

.lr.ph134:                                        ; preds = %34
  %35 = sext i32 %13 to i64
  %36 = sext i32 %15 to i64
  %37 = sext i32 %17 to i64
  %38 = trunc i32 %8 to i8
  %39 = zext nneg i32 %19 to i64
  %40 = sext i32 %21 to i64
  br label %41

41:                                               ; preds = %.lr.ph134, %41
  %.0133 = phi ptr [ %24, %.lr.ph134 ], [ %52, %41 ]
  %.0105132 = phi i32 [ %32, %.lr.ph134 ], [ %53, %41 ]
  %42 = tail call fastcc i32 @read_pbm_integer(ptr noundef %0, ptr noundef %4, i32 noundef %8)
  %43 = trunc i32 %42 to i8
  %44 = getelementptr inbounds i8, ptr %.0133, i64 %35
  store i8 %43, ptr %44, align 1, !tbaa !30
  %45 = tail call fastcc i32 @read_pbm_integer(ptr noundef %0, ptr noundef %4, i32 noundef %8)
  %46 = trunc i32 %45 to i8
  %47 = getelementptr inbounds i8, ptr %.0133, i64 %36
  store i8 %46, ptr %47, align 1, !tbaa !30
  %48 = tail call fastcc i32 @read_pbm_integer(ptr noundef %0, ptr noundef %4, i32 noundef %8)
  %49 = trunc i32 %48 to i8
  %50 = getelementptr inbounds i8, ptr %.0133, i64 %37
  store i8 %49, ptr %50, align 1, !tbaa !30
  %51 = getelementptr inbounds nuw i8, ptr %.0133, i64 %39
  store i8 %38, ptr %51, align 1, !tbaa !30
  %52 = getelementptr inbounds i8, ptr %.0133, i64 %40
  %53 = add i32 %.0105132, -1
  %.not116 = icmp eq i32 %53, 0
  br i1 %.not116, label %.loopexit, label %41, !llvm.loop !71

54:                                               ; preds = %33
  br i1 %.not116131, label %.loopexit, label %.lr.ph130

.lr.ph130:                                        ; preds = %54
  %55 = sext i32 %13 to i64
  %56 = sext i32 %15 to i64
  %57 = sext i32 %17 to i64
  %58 = sext i32 %21 to i64
  br label %59

59:                                               ; preds = %.lr.ph130, %59
  %.1129 = phi ptr [ %24, %.lr.ph130 ], [ %69, %59 ]
  %.1106128 = phi i32 [ %32, %.lr.ph130 ], [ %70, %59 ]
  %60 = tail call fastcc i32 @read_pbm_integer(ptr noundef %0, ptr noundef %4, i32 noundef %8)
  %61 = trunc i32 %60 to i8
  %62 = getelementptr inbounds i8, ptr %.1129, i64 %55
  store i8 %61, ptr %62, align 1, !tbaa !30
  %63 = tail call fastcc i32 @read_pbm_integer(ptr noundef %0, ptr noundef %4, i32 noundef %8)
  %64 = trunc i32 %63 to i8
  %65 = getelementptr inbounds i8, ptr %.1129, i64 %56
  store i8 %64, ptr %65, align 1, !tbaa !30
  %66 = tail call fastcc i32 @read_pbm_integer(ptr noundef %0, ptr noundef %4, i32 noundef %8)
  %67 = trunc i32 %66 to i8
  %68 = getelementptr inbounds i8, ptr %.1129, i64 %57
  store i8 %67, ptr %68, align 1, !tbaa !30
  %69 = getelementptr inbounds i8, ptr %.1129, i64 %58
  %70 = add i32 %.1106128, -1
  %.not115 = icmp eq i32 %70, 0
  br i1 %.not115, label %.loopexit, label %59, !llvm.loop !72

71:                                               ; preds = %2
  br i1 %30, label %72, label %100

72:                                               ; preds = %71
  br i1 %.not116131, label %.loopexit, label %.lr.ph126

.lr.ph126:                                        ; preds = %72
  %73 = sext i32 %13 to i64
  %74 = sext i32 %15 to i64
  %75 = sext i32 %17 to i64
  %76 = zext nneg i32 %19 to i64
  %77 = sext i32 %21 to i64
  br label %78

78:                                               ; preds = %.lr.ph126, %78
  %.2125 = phi ptr [ %24, %.lr.ph126 ], [ %98, %78 ]
  %.2107124 = phi i32 [ %32, %.lr.ph126 ], [ %99, %78 ]
  %79 = tail call fastcc i32 @read_pbm_integer(ptr noundef nonnull %0, ptr noundef %4, i32 noundef %8)
  %80 = zext i32 %79 to i64
  %81 = getelementptr inbounds nuw i8, ptr %6, i64 %80
  %82 = load i8, ptr %81, align 1, !tbaa !30
  %83 = getelementptr inbounds i8, ptr %.2125, i64 %73
  store i8 %82, ptr %83, align 1, !tbaa !30
  %84 = tail call fastcc i32 @read_pbm_integer(ptr noundef nonnull %0, ptr noundef %4, i32 noundef %8)
  %85 = zext i32 %84 to i64
  %86 = getelementptr inbounds nuw i8, ptr %6, i64 %85
  %87 = load i8, ptr %86, align 1, !tbaa !30
  %88 = getelementptr inbounds i8, ptr %.2125, i64 %74
  store i8 %87, ptr %88, align 1, !tbaa !30
  %89 = tail call fastcc i32 @read_pbm_integer(ptr noundef nonnull %0, ptr noundef %4, i32 noundef %8)
  %90 = zext i32 %89 to i64
  %91 = getelementptr inbounds nuw i8, ptr %6, i64 %90
  %92 = load i8, ptr %91, align 1, !tbaa !30
  %93 = getelementptr inbounds i8, ptr %.2125, i64 %75
  store i8 %92, ptr %93, align 1, !tbaa !30
  %94 = load i32, ptr %25, align 8, !tbaa !4
  %notmask114 = shl nsw i32 -1, %94
  %95 = trunc i32 %notmask114 to i8
  %96 = xor i8 %95, -1
  %97 = getelementptr inbounds nuw i8, ptr %.2125, i64 %76
  store i8 %96, ptr %97, align 1, !tbaa !30
  %98 = getelementptr inbounds i8, ptr %.2125, i64 %77
  %99 = add i32 %.2107124, -1
  %.not113 = icmp eq i32 %99, 0
  br i1 %.not113, label %.loopexit, label %78, !llvm.loop !73

100:                                              ; preds = %71
  br i1 %.not116131, label %.loopexit, label %.lr.ph

.lr.ph:                                           ; preds = %100
  %101 = sext i32 %13 to i64
  %102 = sext i32 %15 to i64
  %103 = sext i32 %17 to i64
  %104 = sext i32 %21 to i64
  br label %105

105:                                              ; preds = %.lr.ph, %105
  %.3122 = phi ptr [ %24, %.lr.ph ], [ %121, %105 ]
  %.3108121 = phi i32 [ %32, %.lr.ph ], [ %122, %105 ]
  %106 = tail call fastcc i32 @read_pbm_integer(ptr noundef %0, ptr noundef %4, i32 noundef %8)
  %107 = zext i32 %106 to i64
  %108 = getelementptr inbounds nuw i8, ptr %6, i64 %107
  %109 = load i8, ptr %108, align 1, !tbaa !30
  %110 = getelementptr inbounds i8, ptr %.3122, i64 %101
  store i8 %109, ptr %110, align 1, !tbaa !30
  %111 = tail call fastcc i32 @read_pbm_integer(ptr noundef %0, ptr noundef %4, i32 noundef %8)
  %112 = zext i32 %111 to i64
  %113 = getelementptr inbounds nuw i8, ptr %6, i64 %112
  %114 = load i8, ptr %113, align 1, !tbaa !30
  %115 = getelementptr inbounds i8, ptr %.3122, i64 %102
  store i8 %114, ptr %115, align 1, !tbaa !30
  %116 = tail call fastcc i32 @read_pbm_integer(ptr noundef %0, ptr noundef %4, i32 noundef %8)
  %117 = zext i32 %116 to i64
  %118 = getelementptr inbounds nuw i8, ptr %6, i64 %117
  %119 = load i8, ptr %118, align 1, !tbaa !30
  %120 = getelementptr inbounds i8, ptr %.3122, i64 %103
  store i8 %119, ptr %120, align 1, !tbaa !30
  %121 = getelementptr inbounds i8, ptr %.3122, i64 %104
  %122 = add i32 %.3108121, -1
  %.not = icmp eq i32 %122, 0
  br i1 %.not, label %.loopexit, label %105, !llvm.loop !74

.loopexit:                                        ; preds = %105, %78, %59, %41, %100, %72, %54, %34
  ret i32 1
}